target datalayout = "e-m:e-p270:32:32-p271:32:32-p272:64:64-i64:64-i128:128-f80:128-n8:16:32:64-S128"
target triple = "x86_64-pc-linux-gnu"

; Function Attrs: nounwind uwtable
define hidden i32 @SDL_isinf_REAL(double noundef %0) #0 {
  %2 = alloca double, align 8
  store double %0, ptr %2, align 8
  %3 = load double, ptr %2, align 8
  %4 = call double @llvm.fabs.f64(double %3) #9
  %5 = fcmp oeq double %4, 0x7FF0000000000000
  %6 = bitcast double %3 to i64
  %7 = icmp slt i64 %6, 0
  %8 = select i1 %7, i32 -1, i32 1
  %9 = select i1 %5, i32 %8, i32 0
  ret i32 %9
}