; Function Attrs: mustprogress nofree norecurse nosync nounwind willreturn memory(none) uwtable
define hidden noundef range(i32 -1, 2) i32 @SDL_isinf_REAL(double noundef %0) local_unnamed_addr #2 {
  %2 = tail call double @llvm.fabs.f64(double %0) #11
  %3 = fcmp oeq double %2, 0x7FF0000000000000
  %4 = bitcast double %0 to i64
  %5 = icmp slt i64 %4, 0
  %6 = select i1 %5, i32 -1, i32 1
  %7 = select i1 %3, i32 %6, i32 0
  ret i32 %7
}